target datalayout = "e-m:e-p270:32:32-p271:32:32-p272:64:64-i64:64-i128:128-f80:128-n8:16:32:64-S128"
target triple = "x86_64-pc-linux-gnu"

%struct.archive_write = type { %struct.archive, i32, i64, i64, ptr, i64, ptr, ptr, ptr, ptr, ptr, i32, i32, ptr, ptr, ptr, ptr, ptr, ptr, ptr, ptr, ptr, ptr, ptr, ptr, ptr, ptr }
%struct.archive = type { i32, i32, ptr, i32, ptr, i32, i32, ptr, %struct.archive_string, ptr, i32, i32, ptr, ptr, i64, i64, i64, i8, i64 }
%struct.archive_string = type { ptr, i64, i64 }
%struct.pax = type { i64, i64, %struct.archive_string, %struct.archive_string, %struct.archive_string, i64, ptr, ptr, ptr, i32, i32 }
%struct.sparse_block = type { ptr, i32, i64, i64 }

; Function Attrs: nounwind uwtable
define internal void @sparse_list_clear(ptr noundef %0) #0 {
  %2 = alloca ptr, align 8
  %3 = alloca ptr, align 8
  store ptr %0, ptr %2, align 8
  br label %4

4:                                                ; preds = %9, %1
  %5 = load ptr, ptr %2, align 8
  %6 = getelementptr inbounds %struct.pax, ptr %5, i32 0, i32 6
  %7 = load ptr, ptr %6, align 8
  %8 = icmp ne ptr %7, null
  br i1 %8, label %9, label %19

9:                                                ; preds = %4
  %10 = load ptr, ptr %2, align 8
  %11 = getelementptr inbounds %struct.pax, ptr %10, i32 0, i32 6
  %12 = load ptr, ptr %11, align 8
  store ptr %12, ptr %3, align 8
  %13 = load ptr, ptr %3, align 8
  %14 = getelementptr inbounds %struct.sparse_block, ptr %13, i32 0, i32 0
  %15 = load ptr, ptr %14, align 8
  %16 = load ptr, ptr %2, align 8
  %17 = getelementptr inbounds %struct.pax, ptr %16, i32 0, i32 6
  store ptr %15, ptr %17, align 8
  %18 = load ptr, ptr %3, align 8
  call void @free(ptr noundef %18) #11
  br label %4, !llvm.loop !12

19:                                               ; preds = %4
  %20 = load ptr, ptr %2, align 8
  %21 = getelementptr inbounds %struct.pax, ptr %20, i32 0, i32 7
  store ptr null, ptr %21, align 8
  ret void
}

; Function Attrs: nounwind uwtable
define internal i32 @archive_write_pax_free(ptr noundef %0) #0 {
  %2 = alloca i32, align 4
  %3 = alloca ptr, align 8
  %4 = alloca ptr, align 8
  store ptr %0, ptr %3, align 8
  %5 = load ptr, ptr %3, align 8
  %6 = getelementptr inbounds %struct.archive_write, ptr %5, i32 0, i32 15
  %7 = load ptr, ptr %6, align 8
  store ptr %7, ptr %4, align 8
  %8 = load ptr, ptr %4, align 8
  %9 = icmp eq ptr %8, null
  br i1 %9, label %10, label %11

10:                                               ; preds = %1
  store i32 0, ptr %2, align 4
  br label %22

11:                                               ; preds = %1
  %12 = load ptr, ptr %4, align 8
  %13 = getelementptr inbounds %struct.pax, ptr %12, i32 0, i32 3
  call void @archive_string_free(ptr noundef %13)
  %14 = load ptr, ptr %4, align 8
  %15 = getelementptr inbounds %struct.pax, ptr %14, i32 0, i32 4
  call void @archive_string_free(ptr noundef %15)
  %16 = load ptr, ptr %4, align 8
  %17 = getelementptr inbounds %struct.pax, ptr %16, i32 0, i32 2
  call void @archive_string_free(ptr noundef %17)
  %18 = load ptr, ptr %4, align 8
  call void @sparse_list_clear(ptr noundef %18)
  %19 = load ptr, ptr %4, align 8
  call void @free(ptr noundef %19) #11
  %20 = load ptr, ptr %3, align 8
  %21 = getelementptr inbounds %struct.archive_write, ptr %20, i32 0, i32 15
  store ptr null, ptr %21, align 8
  store i32 0, ptr %2, align 4
  br label %22

22:                                               ; preds = %11, %10
  %23 = load i32, ptr %2, align 4
  ret i32 %23
}