; Function Attrs: nounwind uwtable
define internal noundef i32 @archive_write_pax_free(ptr noundef captures(none) %0) #0 {
  %2 = getelementptr inbounds nuw i8, ptr %0, i64 248
  %3 = load ptr, ptr %2, align 8
  %4 = icmp eq ptr %3, null
  br i1 %4, label %14, label %5

5:                                                ; preds = %1
  %6 = getelementptr inbounds nuw i8, ptr %3, i64 40
  tail call void @archive_string_free(ptr noundef nonnull %6) #15
  %7 = getelementptr inbounds nuw i8, ptr %3, i64 64
  tail call void @archive_string_free(ptr noundef nonnull %7) #15
  %8 = getelementptr inbounds nuw i8, ptr %3, i64 16
  tail call void @archive_string_free(ptr noundef nonnull %8) #15
  %9 = getelementptr inbounds nuw i8, ptr %3, i64 96
  %10 = load ptr, ptr %9, align 8
  %.not6.i = icmp eq ptr %10, null
  br i1 %.not6.i, label %sparse_list_clear.exit, label %.lr.ph.i

.lr.ph.i:                                         ; preds = %5, %.lr.ph.i
  %11 = phi ptr [ %13, %.lr.ph.i ], [ %10, %5 ]
  %12 = load ptr, ptr %11, align 8
  store ptr %12, ptr %9, align 8
  tail call void @free(ptr noundef nonnull %11) #15
  %13 = load ptr, ptr %9, align 8
  %.not.i = icmp eq ptr %13, null
  br i1 %.not.i, label %sparse_list_clear.exit, label %.lr.ph.i, !llvm.loop !8

sparse_list_clear.exit:                           ; preds = %.lr.ph.i, %5
  tail call void @free(ptr noundef nonnull %3) #15
  store ptr null, ptr %2, align 8
  br label %14

14:                                               ; preds = %1, %sparse_list_clear.exit
  ret i32 0
}